; Function Attrs: nofree nosync nounwind memory(readwrite, inaccessiblemem: none) uwtable
define i32 @Ga2_ManComputeTruth(ptr noundef readonly %0, ptr noundef readonly %1, ptr noundef readonly captures(none) %2) local_unnamed_addr #1 {
  %4 = getelementptr i8, ptr %0, i64 32
  %5 = getelementptr i8, ptr %2, i64 4
  %.val27 = load i32, ptr %5, align 4
  %6 = icmp sgt i32 %.val27, 0
  br i1 %6, label %.lr.ph, label %.critedge.thread

.critedge.thread:                                 ; preds = %3
  %7 = tail call i32 @Ga2_ObjComputeTruth_rec(ptr noundef %0, ptr noundef %1, i32 noundef 1)
  br label %.critedge2

.lr.ph:                                           ; preds = %3
  %8 = getelementptr i8, ptr %2, i64 8
  %.val2542 = load ptr, ptr %4, align 8
  %.not43 = icmp eq ptr %.val2542, null
  br i1 %.not43, label %.critedge, label %.lr.ph46

9:                                                ; preds = %.lr.ph46
  %.val25 = load ptr, ptr %4, align 8
  %.not = icmp eq ptr %.val25, null
  br i1 %.not, label %.critedge.loopexit, label %.lr.ph46, !llvm.loop !4

.lr.ph46:                                         ; preds = %.lr.ph, %9
  %.val2545 = phi ptr [ %.val25, %9 ], [ %.val2542, %.lr.ph ]
  %indvars.iv44 = phi i64 [ %indvars.iv.next, %9 ], [ 0, %.lr.ph ]
  %.val23 = load ptr, ptr %8, align 8
  %10 = getelementptr inbounds nuw i32, ptr %.val23, i64 %indvars.iv44
  %11 = load i32, ptr %10, align 4
  %12 = sext i32 %11 to i64
  %13 = getelementptr inbounds nuw [5 x i32], ptr @Ga2_ObjComputeTruthSpecial.uTruth5, i64 0, i64 %indvars.iv44
  %14 = load i32, ptr %13, align 4
  %15 = getelementptr inbounds %struct.Gia_Obj_t_, ptr %.val2545, i64 %12, i32 1
  store i32 %14, ptr %15, align 4
  %indvars.iv.next = add nuw nsw i64 %indvars.iv44, 1
  %.val = load i32, ptr %5, align 4
  %16 = sext i32 %.val to i64
  %17 = icmp slt i64 %indvars.iv.next, %16
  br i1 %17, label %9, label %.critedge.loopexit, !llvm.loop !4

.critedge.loopexit:                               ; preds = %9, %.lr.ph46
  %18 = icmp sgt i32 %.val, 0
  br label %.critedge

.critedge:                                        ; preds = %.critedge.loopexit, %.lr.ph
  %.val223039 = phi i1 [ true, %.lr.ph ], [ %18, %.critedge.loopexit ]
  %19 = tail call i32 @Ga2_ObjComputeTruth_rec(ptr noundef nonnull %0, ptr noundef %1, i32 noundef 1)
  br i1 %.val223039, label %.lr.ph32, label %.critedge2

.lr.ph32:                                         ; preds = %.critedge
  %20 = getelementptr i8, ptr %2, i64 8
  br label %21

21:                                               ; preds = %.lr.ph32, %22
  %indvars.iv35 = phi i64 [ 0, %.lr.ph32 ], [ %indvars.iv.next36, %22 ]
  %.val26 = load ptr, ptr %4, align 8
  %.not21 = icmp eq ptr %.val26, null
  br i1 %.not21, label %.critedge2, label %22

22:                                               ; preds = %21
  %.val24 = load ptr, ptr %20, align 8
  %23 = getelementptr inbounds nuw i32, ptr %.val24, i64 %indvars.iv35
  %24 = load i32, ptr %23, align 4
  %25 = sext i32 %24 to i64
  %26 = getelementptr inbounds %struct.Gia_Obj_t_, ptr %.val26, i64 %25, i32 1
  store i32 0, ptr %26, align 4
  %indvars.iv.next36 = add nuw nsw i64 %indvars.iv35, 1
  %.val22 = load i32, ptr %5, align 4
  %27 = sext i32 %.val22 to i64
  %28 = icmp slt i64 %indvars.iv.next36, %27
  br i1 %28, label %21, label %.critedge2, !llvm.loop !6

.critedge2:                                       ; preds = %21, %22, %.critedge.thread, %.critedge
  %29 = phi i32 [ %7, %.critedge.thread ], [ %19, %.critedge ], [ %19, %22 ], [ %19, %21 ]
  ret i32 %29
}